; ModuleID = '12/874.c'
source_filename = "12/874.c"
target datalayout = "e-m:e-p270:32:32-p271:32:32-p272:64:64-i64:64-f80:128-n8:16:32:64-S128"
target triple = "x86_64-pc-linux-gnu"

@.str = private unnamed_addr constant [3 x i8] c"%d\00", align 1
@.str.1 = private unnamed_addr constant [4 x i8] c"%d\0A\00", align 1

; Function Attrs: noinline nounwind uwtable
define dso_local void @main() #0 {
  %1 = alloca [16 x i32], align 16
  %2 = alloca i32, align 4
  %3 = alloca i32, align 4
  %4 = alloca i32, align 4
  %5 = alloca i32, align 4
  br label %6

6:                                                ; preds = %75, %0
  %7 = getelementptr inbounds [16 x i32], [16 x i32]* %1, i64 0, i64 0
  %8 = call i32 (i8*, ...) @__isoc99_scanf(i8* getelementptr inbounds ([3 x i8], [3 x i8]* @.str, i64 0, i64 0), i32* %7)
  %9 = getelementptr inbounds [16 x i32], [16 x i32]* %1, i64 0, i64 0
  %10 = load i32, i32* %9, align 16
  %11 = icmp eq i32 %10, -1
  br i1 %11, label %12, label %13

12:                                               ; preds = %6
  br label %76

13:                                               ; preds = %6
  store i32 0, i32* %5, align 4
  store i32 1, i32* %2, align 4
  br label %14

14:                                               ; preds = %26, %13
  %15 = load i32, i32* %2, align 4
  %16 = sext i32 %15 to i64
  %17 = getelementptr inbounds [16 x i32], [16 x i32]* %1, i64 0, i64 %16
  %18 = call i32 (i8*, ...) @__isoc99_scanf(i8* getelementptr inbounds ([3 x i8], [3 x i8]* @.str, i64 0, i64 0), i32* %17)
  %19 = load i32, i32* %2, align 4
  %20 = sext i32 %19 to i64
  %21 = getelementptr inbounds [16 x i32], [16 x i32]* %1, i64 0, i64 %20
  %22 = load i32, i32* %21, align 4
  %23 = icmp eq i32 %22, 0
  br i1 %23, label %24, label %25

24:                                               ; preds = %14
  br label %29

25:                                               ; preds = %14
  br label %26

26:                                               ; preds = %25
  %27 = load i32, i32* %2, align 4
  %28 = add nsw i32 %27, 1
  store i32 %28, i32* %2, align 4
  br label %14

29:                                               ; preds = %24
  store i32 0, i32* %3, align 4
  br label %30

30:                                               ; preds = %69, %29
  %31 = load i32, i32* %3, align 4
  %32 = load i32, i32* %2, align 4
  %33 = icmp slt i32 %31, %32
  br i1 %33, label %34, label %72

34:                                               ; preds = %30
  store i32 0, i32* %4, align 4
  br label %35

35:                                               ; preds = %65, %34
  %36 = load i32, i32* %4, align 4
  %37 = load i32, i32* %2, align 4
  %38 = icmp slt i32 %36, %37
  br i1 %38, label %39, label %68

39:                                               ; preds = %35
  %40 = load i32, i32* %3, align 4
  %41 = sext i32 %40 to i64
  %42 = getelementptr inbounds [16 x i32], [16 x i32]* %1, i64 0, i64 %41
  %43 = load i32, i32* %42, align 4
  %44 = load i32, i32* %4, align 4
  %45 = sext i32 %44 to i64
  %46 = getelementptr inbounds [16 x i32], [16 x i32]* %1, i64 0, i64 %45
  %47 = load i32, i32* %46, align 4
  %48 = srem i32 %43, %47
  %49 = icmp eq i32 %48, 0
  br i1 %49, label %50, label %64

50:                                               ; preds = %39
  %51 = load i32, i32* %3, align 4
  %52 = sext i32 %51 to i64
  %53 = getelementptr inbounds [16 x i32], [16 x i32]* %1, i64 0, i64 %52
  %54 = load i32, i32* %53, align 4
  %55 = load i32, i32* %4, align 4
  %56 = sext i32 %55 to i64
  %57 = getelementptr inbounds [16 x i32], [16 x i32]* %1, i64 0, i64 %56
  %58 = load i32, i32* %57, align 4
  %59 = sdiv i32 %54, %58
  %60 = icmp eq i32 %59, 2
  br i1 %60, label %61, label %64

61:                                               ; preds = %50
  %62 = load i32, i32* %5, align 4
  %63 = add nsw i32 %62, 1
  store i32 %63, i32* %5, align 4
  br label %64

64:                                               ; preds = %61, %50, %39
  br label %65

65:                                               ; preds = %64
  %66 = load i32, i32* %4, align 4
  %67 = add nsw i32 %66, 1
  store i32 %67, i32* %4, align 4
  br label %35

68:                                               ; preds = %35
  br label %69

69:                                               ; preds = %68
  %70 = load i32, i32* %3, align 4
  %71 = add nsw i32 %70, 1
  store i32 %71, i32* %3, align 4
  br label %30

72:                                               ; preds = %30
  %73 = load i32, i32* %5, align 4
  %74 = call i32 (i8*, ...) @printf(i8* getelementptr inbounds ([4 x i8], [4 x i8]* @.str.1, i64 0, i64 0), i32 %73)
  br label %75

75:                                               ; preds = %72
  br label %6

76:                                               ; preds = %12
  ret void
}

declare dso_local i32 @__isoc99_scanf(i8*, ...) #1

declare dso_local i32 @printf(i8*, ...) #1


!llvm.module.flags = !{!0}
!llvm.ident = !{!1}

!0 = !{i32 1, !"wchar_size", i32 4}
!1 = !{!"clang version 10.0.0-4ubuntu1 "}
